; ModuleID = '27/217.c'
source_filename = "27/217.c"
target datalayout = "e-m:e-p270:32:32-p271:32:32-p272:64:64-i64:64-f80:128-n8:16:32:64-S128"
target triple = "x86_64-pc-linux-gnu"

@.str = private unnamed_addr constant [3 x i8] c"%d\00", align 1
@.str.1 = private unnamed_addr constant [12 x i8] c"%lf %lf %lf\00", align 1
@.str.2 = private unnamed_addr constant [13 x i8] c"x1=x2=%7.5f\0A\00", align 1
@.str.3 = private unnamed_addr constant [19 x i8] c"x1=%7.5f;x2=%7.5f\0A\00", align 1
@.str.4 = private unnamed_addr constant [37 x i8] c"x1=0.00000+%7.5fi;x2=0.00000-%7.5fi\0A\00", align 1
@.str.5 = private unnamed_addr constant [33 x i8] c"x1=%7.5f+%7.5fi;x2=%7.5f-%7.5fi\0A\00", align 1

; Function Attrs: noinline nounwind uwtable
define dso_local i32 @main() #0 {
  %1 = alloca i32, align 4
  %2 = alloca i32, align 4
  %3 = alloca i32, align 4
  %4 = alloca double, align 8
  %5 = alloca double, align 8
  %6 = alloca double, align 8
  %7 = alloca double, align 8
  %8 = alloca double, align 8
  %9 = alloca double, align 8
  %10 = alloca double, align 8
  %11 = alloca double, align 8
  store i32 0, i32* %1, align 4
  %12 = call i32 (i8*, ...) @__isoc99_scanf(i8* getelementptr inbounds ([3 x i8], [3 x i8]* @.str, i64 0, i64 0), i32* %2)
  store i32 1, i32* %3, align 4
  br label %13

13:                                               ; preds = %107, %0
  %14 = load i32, i32* %3, align 4
  %15 = load i32, i32* %2, align 4
  %16 = icmp sle i32 %14, %15
  br i1 %16, label %17, label %110

17:                                               ; preds = %13
  %18 = call i32 (i8*, ...) @__isoc99_scanf(i8* getelementptr inbounds ([12 x i8], [12 x i8]* @.str.1, i64 0, i64 0), double* %4, double* %5, double* %6)
  %19 = load double, double* %5, align 8
  %20 = load double, double* %5, align 8
  %21 = fmul double %19, %20
  %22 = load double, double* %4, align 8
  %23 = fmul double 4.000000e+00, %22
  %24 = load double, double* %6, align 8
  %25 = fmul double %23, %24
  %26 = fsub double %21, %25
  store double %26, double* %7, align 8
  %27 = load double, double* %7, align 8
  %28 = call double @llvm.fabs.f64(double %27)
  %29 = fcmp ole double %28, 0x3EB0C6F7A0B5ED8D
  br i1 %29, label %30, label %43

30:                                               ; preds = %17
  %31 = load double, double* %5, align 8
  %32 = fneg double %31
  %33 = load double, double* %4, align 8
  %34 = fmul double 2.000000e+00, %33
  %35 = fdiv double %32, %34
  store double %35, double* %8, align 8
  %36 = load double, double* %5, align 8
  %37 = fneg double %36
  %38 = load double, double* %4, align 8
  %39 = fmul double 2.000000e+00, %38
  %40 = fdiv double %37, %39
  store double %40, double* %9, align 8
  %41 = load double, double* %8, align 8
  %42 = call i32 (i8*, ...) @printf(i8* getelementptr inbounds ([13 x i8], [13 x i8]* @.str.2, i64 0, i64 0), double %41)
  br label %106

43:                                               ; preds = %17
  %44 = load double, double* %7, align 8
  %45 = fcmp ogt double %44, 0x3EB0C6F7A0B5ED8D
  br i1 %45, label %46, label %80

46:                                               ; preds = %43
  %47 = load double, double* %5, align 8
  %48 = fneg double %47
  %49 = load double, double* %5, align 8
  %50 = load double, double* %5, align 8
  %51 = fmul double %49, %50
  %52 = load double, double* %4, align 8
  %53 = fmul double 4.000000e+00, %52
  %54 = load double, double* %6, align 8
  %55 = fmul double %53, %54
  %56 = fsub double %51, %55
  %57 = call double @sqrt(double %56) #4
  %58 = fadd double %48, %57
  %59 = load double, double* %4, align 8
  %60 = fmul double 2.000000e+00, %59
  %61 = fdiv double %58, %60
  store double %61, double* %8, align 8
  %62 = load double, double* %5, align 8
  %63 = fneg double %62
  %64 = load double, double* %5, align 8
  %65 = load double, double* %5, align 8
  %66 = fmul double %64, %65
  %67 = load double, double* %4, align 8
  %68 = fmul double 4.000000e+00, %67
  %69 = load double, double* %6, align 8
  %70 = fmul double %68, %69
  %71 = fsub double %66, %70
  %72 = call double @sqrt(double %71) #4
  %73 = fsub double %63, %72
  %74 = load double, double* %4, align 8
  %75 = fmul double 2.000000e+00, %74
  %76 = fdiv double %73, %75
  store double %76, double* %9, align 8
  %77 = load double, double* %8, align 8
  %78 = load double, double* %9, align 8
  %79 = call i32 (i8*, ...) @printf(i8* getelementptr inbounds ([19 x i8], [19 x i8]* @.str.3, i64 0, i64 0), double %77, double %78)
  br label %105

80:                                               ; preds = %43
  %81 = load double, double* %5, align 8
  %82 = fneg double %81
  %83 = load double, double* %4, align 8
  %84 = fmul double 2.000000e+00, %83
  %85 = fdiv double %82, %84
  store double %85, double* %10, align 8
  %86 = load double, double* %7, align 8
  %87 = fneg double %86
  %88 = call double @sqrt(double %87) #4
  %89 = load double, double* %4, align 8
  %90 = fmul double 2.000000e+00, %89
  %91 = fdiv double %88, %90
  store double %91, double* %11, align 8
  %92 = load double, double* %10, align 8
  %93 = fcmp oeq double %92, 0.000000e+00
  br i1 %93, label %94, label %98

94:                                               ; preds = %80
  %95 = load double, double* %11, align 8
  %96 = load double, double* %11, align 8
  %97 = call i32 (i8*, ...) @printf(i8* getelementptr inbounds ([37 x i8], [37 x i8]* @.str.4, i64 0, i64 0), double %95, double %96)
  br label %104

98:                                               ; preds = %80
  %99 = load double, double* %10, align 8
  %100 = load double, double* %11, align 8
  %101 = load double, double* %10, align 8
  %102 = load double, double* %11, align 8
  %103 = call i32 (i8*, ...) @printf(i8* getelementptr inbounds ([33 x i8], [33 x i8]* @.str.5, i64 0, i64 0), double %99, double %100, double %101, double %102)
  br label %104

104:                                              ; preds = %98, %94
  br label %105

105:                                              ; preds = %104, %46
  br label %106

106:                                              ; preds = %105, %30
  br label %107

107:                                              ; preds = %106
  %108 = load i32, i32* %3, align 4
  %109 = add nsw i32 %108, 1
  store i32 %109, i32* %3, align 4
  br label %13

110:                                              ; preds = %13
  ret i32 0
}

declare dso_local i32 @__isoc99_scanf(i8*, ...) #1

; Function Attrs: nounwind readnone speculatable willreturn
declare double @llvm.fabs.f64(double) #2

declare dso_local i32 @printf(i8*, ...) #1

; Function Attrs: nounwind
declare dso_local double @sqrt(double) #3


!llvm.module.flags = !{!0}
!llvm.ident = !{!1}

!0 = !{i32 1, !"wchar_size", i32 4}
!1 = !{!"clang version 10.0.0-4ubuntu1 "}
