; ModuleID = 'source-C-CXX/26/217.c'
source_filename = "source-C-CXX/26/217.c"
target datalayout = "e-m:e-p270:32:32-p271:32:32-p272:64:64-i64:64-f80:128-n8:16:32:64-S128"
target triple = "x86_64-pc-linux-gnu"

@.str = private unnamed_addr constant [3 x i8] c"%d\00", align 1
@.str.1 = private unnamed_addr constant [12 x i8] c"%lf %lf %lf\00", align 1
@.str.2 = private unnamed_addr constant [13 x i8] c"x1=x2=%7.5f\0A\00", align 1
@.str.3 = private unnamed_addr constant [19 x i8] c"x1=%7.5f;x2=%7.5f\0A\00", align 1
@.str.4 = private unnamed_addr constant [37 x i8] c"x1=0.00000+%7.5fi;x2=0.00000-%7.5fi\0A\00", align 1
@.str.5 = private unnamed_addr constant [33 x i8] c"x1=%7.5f+%7.5fi;x2=%7.5f-%7.5fi\0A\00", align 1

; Function Attrs: nofree nounwind sspstrong uwtable
define dso_local i32 @main() local_unnamed_addr #0 {
  %1 = alloca i32, align 4
  %2 = alloca double, align 8
  %3 = alloca double, align 8
  %4 = alloca double, align 8
  %5 = bitcast i32* %1 to i8*
  call void @llvm.lifetime.start.p0i8(i64 4, i8* nonnull %5) #5
  %6 = call i32 (i8*, ...) @__isoc99_scanf(i8* getelementptr inbounds ([3 x i8], [3 x i8]* @.str, i64 0, i64 0), i32* nonnull %1)
  %7 = bitcast double* %2 to i8*
  call void @llvm.lifetime.start.p0i8(i64 8, i8* nonnull %7) #5
  %8 = bitcast double* %3 to i8*
  call void @llvm.lifetime.start.p0i8(i64 8, i8* nonnull %8) #5
  %9 = bitcast double* %4 to i8*
  call void @llvm.lifetime.start.p0i8(i64 8, i8* nonnull %9) #5
  %10 = load i32, i32* %1, align 4, !tbaa !5
  %11 = icmp slt i32 %10, 1
  br i1 %11, label %68, label %12

12:                                               ; preds = %0, %64
  %13 = phi i32 [ %65, %64 ], [ 1, %0 ]
  %14 = call i32 (i8*, ...) @__isoc99_scanf(i8* getelementptr inbounds ([12 x i8], [12 x i8]* @.str.1, i64 0, i64 0), double* nonnull %2, double* nonnull %3, double* nonnull %4)
  %15 = load double, double* %3, align 8, !tbaa !9
  %16 = fmul double %15, %15
  %17 = load double, double* %2, align 8, !tbaa !9
  %18 = fmul double %17, 4.000000e+00
  %19 = load double, double* %4, align 8, !tbaa !9
  %20 = fmul double %18, %19
  %21 = fsub double %16, %20
  %22 = call double @llvm.fabs.f64(double %21)
  %23 = fcmp ugt double %22, 0x3EB0C6F7A0B5ED8D
  br i1 %23, label %29, label %24

24:                                               ; preds = %12
  %25 = fneg double %15
  %26 = fmul double %17, 2.000000e+00
  %27 = fdiv double %25, %26
  %28 = call i32 (i8*, ...) @printf(i8* nonnull dereferenceable(1) getelementptr inbounds ([13 x i8], [13 x i8]* @.str.2, i64 0, i64 0), double %27)
  br label %64

29:                                               ; preds = %12
  %30 = fcmp ogt double %21, 0x3EB0C6F7A0B5ED8D
  br i1 %30, label %31, label %50

31:                                               ; preds = %29
  %32 = call double @sqrt(double %21) #5
  %33 = fsub double %32, %15
  %34 = load double, double* %2, align 8, !tbaa !9
  %35 = fmul double %34, 2.000000e+00
  %36 = fdiv double %33, %35
  %37 = load double, double* %3, align 8, !tbaa !9
  %38 = fneg double %37
  %39 = fmul double %37, %37
  %40 = fmul double %34, 4.000000e+00
  %41 = load double, double* %4, align 8, !tbaa !9
  %42 = fmul double %40, %41
  %43 = fsub double %39, %42
  %44 = call double @sqrt(double %43) #5
  %45 = fsub double %38, %44
  %46 = load double, double* %2, align 8, !tbaa !9
  %47 = fmul double %46, 2.000000e+00
  %48 = fdiv double %45, %47
  %49 = call i32 (i8*, ...) @printf(i8* nonnull dereferenceable(1) getelementptr inbounds ([19 x i8], [19 x i8]* @.str.3, i64 0, i64 0), double %36, double %48)
  br label %64

50:                                               ; preds = %29
  %51 = fneg double %15
  %52 = fmul double %17, 2.000000e+00
  %53 = fdiv double %51, %52
  %54 = fneg double %21
  %55 = call double @sqrt(double %54) #5
  %56 = load double, double* %2, align 8, !tbaa !9
  %57 = fmul double %56, 2.000000e+00
  %58 = fdiv double %55, %57
  %59 = fcmp oeq double %53, 0.000000e+00
  br i1 %59, label %60, label %62

60:                                               ; preds = %50
  %61 = call i32 (i8*, ...) @printf(i8* nonnull dereferenceable(1) getelementptr inbounds ([37 x i8], [37 x i8]* @.str.4, i64 0, i64 0), double %58, double %58)
  br label %64

62:                                               ; preds = %50
  %63 = call i32 (i8*, ...) @printf(i8* nonnull dereferenceable(1) getelementptr inbounds ([33 x i8], [33 x i8]* @.str.5, i64 0, i64 0), double %53, double %58, double %53, double %58)
  br label %64

64:                                               ; preds = %24, %60, %62, %31
  %65 = add nuw nsw i32 %13, 1
  %66 = load i32, i32* %1, align 4, !tbaa !5
  %67 = icmp slt i32 %13, %66
  br i1 %67, label %12, label %68, !llvm.loop !11

68:                                               ; preds = %64, %0
  call void @llvm.lifetime.end.p0i8(i64 8, i8* nonnull %9) #5
  call void @llvm.lifetime.end.p0i8(i64 8, i8* nonnull %8) #5
  call void @llvm.lifetime.end.p0i8(i64 8, i8* nonnull %7) #5
  call void @llvm.lifetime.end.p0i8(i64 4, i8* nonnull %5) #5
  ret i32 0
}

; Function Attrs: argmemonly mustprogress nofree nosync nounwind willreturn
declare void @llvm.lifetime.start.p0i8(i64 immarg, i8* nocapture) #1

; Function Attrs: nofree nounwind
declare noundef i32 @__isoc99_scanf(i8* nocapture noundef readonly, ...) local_unnamed_addr #2

; Function Attrs: mustprogress nofree nosync nounwind readnone speculatable willreturn
declare double @llvm.fabs.f64(double) #3

; Function Attrs: nofree nounwind
declare noundef i32 @printf(i8* nocapture noundef readonly, ...) local_unnamed_addr #2

; Function Attrs: mustprogress nofree nounwind willreturn
declare double @sqrt(double) local_unnamed_addr #4

; Function Attrs: argmemonly mustprogress nofree nosync nounwind willreturn
declare void @llvm.lifetime.end.p0i8(i64 immarg, i8* nocapture) #1


!llvm.module.flags = !{!0, !1, !2, !3}
!llvm.ident = !{!4}

!0 = !{i32 1, !"wchar_size", i32 4}
!1 = !{i32 7, !"PIC Level", i32 2}
!2 = !{i32 7, !"PIE Level", i32 2}
!3 = !{i32 7, !"uwtable", i32 1}
!4 = !{!"clang version 13.0.0"}
!5 = !{!6, !6, i64 0}
!6 = !{!"int", !7, i64 0}
!7 = !{!"omnipotent char", !8, i64 0}
!8 = !{!"Simple C/C++ TBAA"}
!9 = !{!10, !10, i64 0}
!10 = !{!"double", !7, i64 0}
!11 = distinct !{!11, !12}
!12 = !{!"llvm.loop.mustprogress"}
